; Function Attrs: mustprogress uwtable
define internal void @_ZL22browser_open_data_filePKc(ptr noundef %0) #0 personality ptr @__gxx_personality_v0 {
  %2 = alloca %class.QString, align 16
  %3 = alloca %class.QUrl, align 8
  %4 = alloca %class.QString, align 16
  call void @llvm.lifetime.start.p0(i64 24, ptr nonnull %2)
  %.not.i.i = icmp eq ptr %0, null
  br i1 %.not.i.i, label %_ZN7QStringC2EPKc.exit, label %.split.i.i

.split.i.i:                                       ; preds = %1
  %5 = tail call noundef i64 @strlen(ptr noundef nonnull dereferenceable(1) %0) #24
  br label %_ZN7QStringC2EPKc.exit

_ZN7QStringC2EPKc.exit:                           ; preds = %1, %.split.i.i
  %.sink5.i.i = phi i64 [ %5, %.split.i.i ], [ 0, %1 ]
  call void @_ZN7QString8fromUtf8E14QByteArrayView(ptr dead_on_unwind nonnull writable sret(%class.QString) align 8 %2, i64 %.sink5.i.i, ptr %0)
  %6 = load <2 x ptr>, ptr %2, align 16
  store <2 x ptr> %6, ptr %4, align 16
  %7 = getelementptr inbounds i8, ptr %4, i64 16
  %8 = getelementptr inbounds i8, ptr %2, i64 16
  %9 = load i64, ptr %8, align 16
  store i64 %9, ptr %7, align 16
  call void @llvm.lifetime.end.p0(i64 24, ptr nonnull %2)
  invoke void @_ZN4QUrl13fromLocalFileERK7QString(ptr dead_on_unwind nonnull writable sret(%class.QUrl) align 8 %3, ptr noundef nonnull align 8 dereferenceable(24) %4)
          to label %10 unwind label %17

10:                                               ; preds = %_ZN7QStringC2EPKc.exit
  %11 = invoke noundef zeroext i1 @_ZN16QDesktopServices7openUrlERK4QUrl(ptr noundef nonnull align 8 dereferenceable(8) %3)
          to label %12 unwind label %19

12:                                               ; preds = %10
  call void @_ZN4QUrlD1Ev(ptr noundef nonnull align 8 dereferenceable(8) %3) #24
  %13 = load ptr, ptr %4, align 16
  %.not.i.i.i = icmp eq ptr %13, null
  br i1 %.not.i.i.i, label %_ZN7QStringD2Ev.exit, label %_ZN17QArrayDataPointerIDsE5derefEv.exit.i.i

_ZN17QArrayDataPointerIDsE5derefEv.exit.i.i:      ; preds = %12
  %14 = atomicrmw sub ptr %13, i32 1 seq_cst, align 4
  %.not.i.i4 = icmp eq i32 %14, 1
  br i1 %.not.i.i4, label %15, label %_ZN7QStringD2Ev.exit

15:                                               ; preds = %_ZN17QArrayDataPointerIDsE5derefEv.exit.i.i
  %16 = load ptr, ptr %4, align 16
  call void @_ZN10QArrayData10deallocateEPS_xx(ptr noundef %16, i64 noundef 2, i64 noundef 8) #24
  br label %_ZN7QStringD2Ev.exit

_ZN7QStringD2Ev.exit:                             ; preds = %12, %_ZN17QArrayDataPointerIDsE5derefEv.exit.i.i, %15
  ret void

17:                                               ; preds = %_ZN7QStringC2EPKc.exit
  %18 = landingpad { ptr, i32 }
          cleanup
  br label %21

19:                                               ; preds = %10
  %20 = landingpad { ptr, i32 }
          cleanup
  call void @_ZN4QUrlD1Ev(ptr noundef nonnull align 8 dereferenceable(8) %3) #24
  br label %21

21:                                               ; preds = %19, %17
  %.pn = phi { ptr, i32 } [ %20, %19 ], [ %18, %17 ]
  %22 = load ptr, ptr %4, align 16
  %.not.i.i.i5 = icmp eq ptr %22, null
  br i1 %.not.i.i.i5, label %_ZN7QStringD2Ev.exit8, label %_ZN17QArrayDataPointerIDsE5derefEv.exit.i.i6

_ZN17QArrayDataPointerIDsE5derefEv.exit.i.i6:     ; preds = %21
  %23 = atomicrmw sub ptr %22, i32 1 seq_cst, align 4
  %.not.i.i7 = icmp eq i32 %23, 1
  br i1 %.not.i.i7, label %24, label %_ZN7QStringD2Ev.exit8

24:                                               ; preds = %_ZN17QArrayDataPointerIDsE5derefEv.exit.i.i6
  %25 = load ptr, ptr %4, align 16
  call void @_ZN10QArrayData10deallocateEPS_xx(ptr noundef %25, i64 noundef 2, i64 noundef 8) #24
  br label %_ZN7QStringD2Ev.exit8

_ZN7QStringD2Ev.exit8:                            ; preds = %21, %_ZN17QArrayDataPointerIDsE5derefEv.exit.i.i6, %24
  resume { ptr, i32 } %.pn
}